; Function Attrs: nounwind uwtable
define ptr @l_Lean_Meta_Grind_ematch___lambda__2(ptr noundef readonly captures(none) %0, ptr readnone captures(none) %1, ptr noundef %2, ptr noundef %3, ptr noundef %4, ptr noundef %5, ptr noundef %6, ptr noundef %7, ptr noundef %8, ptr noundef %9, ptr noundef %10, ptr noundef %11, ptr noundef %12) local_unnamed_addr #0 {
  %.val = load i32, ptr %2, align 4, !tbaa !8
  %14 = icmp eq i32 %.val, 1
  br i1 %14, label %15, label %17

15:                                               ; preds = %13
  %16 = getelementptr inbounds nuw i8, ptr %2, i64 24
  store i8 0, ptr %16, align 1, !tbaa !16
  br label %54

17:                                               ; preds = %13
  %18 = getelementptr inbounds nuw i8, ptr %2, i64 8
  %19 = load ptr, ptr %18, align 8, !tbaa !4
  %20 = getelementptr inbounds nuw i8, ptr %2, i64 16
  %21 = load ptr, ptr %20, align 8, !tbaa !4
  %22 = ptrtoint ptr %21 to i64
  %23 = and i64 %22, 1
  %.not = icmp eq i64 %23, 0
  br i1 %.not, label %24, label %lean_inc.exit41

24:                                               ; preds = %17
  %.val.i = load i32, ptr %21, align 4, !tbaa !8
  %25 = icmp sgt i32 %.val.i, 0
  br i1 %25, label %26, label %28, !prof !11

26:                                               ; preds = %24
  %27 = add nuw i32 %.val.i, 1
  store i32 %27, ptr %21, align 4, !tbaa !8
  br label %lean_inc.exit41

28:                                               ; preds = %24
  %.not.i42 = icmp eq i32 %.val.i, 0
  br i1 %.not.i42, label %lean_inc.exit41, label %29

29:                                               ; preds = %28
  tail call void @lean_inc_ref_cold(ptr noundef nonnull %21) #5
  br label %lean_inc.exit41

lean_inc.exit41:                                  ; preds = %29, %28, %26, %17
  %30 = ptrtoint ptr %19 to i64
  %31 = and i64 %30, 1
  %.not46 = icmp eq i64 %31, 0
  br i1 %.not46, label %32, label %lean_inc.exit

32:                                               ; preds = %lean_inc.exit41
  %.val.i43 = load i32, ptr %19, align 4, !tbaa !8
  %33 = icmp sgt i32 %.val.i43, 0
  br i1 %33, label %34, label %36, !prof !11

34:                                               ; preds = %32
  %35 = add nuw i32 %.val.i43, 1
  store i32 %35, ptr %19, align 4, !tbaa !8
  br label %lean_inc.exit

36:                                               ; preds = %32
  %.not.i44 = icmp eq i32 %.val.i43, 0
  br i1 %.not.i44, label %lean_inc.exit, label %37

37:                                               ; preds = %36
  tail call void @lean_inc_ref_cold(ptr noundef nonnull %19) #5
  br label %lean_inc.exit

lean_inc.exit:                                    ; preds = %37, %36, %34, %lean_inc.exit41
  %38 = ptrtoint ptr %2 to i64
  %39 = and i64 %38, 1
  %.not47 = icmp eq i64 %39, 0
  br i1 %.not47, label %40, label %lean_dec.exit

40:                                               ; preds = %lean_inc.exit
  %41 = load i32, ptr %2, align 4, !tbaa !8
  %42 = icmp sgt i32 %41, 1
  br i1 %42, label %43, label %45, !prof !11

43:                                               ; preds = %40
  %44 = add nsw i32 %41, -1
  store i32 %44, ptr %2, align 4, !tbaa !8
  br label %lean_dec.exit

45:                                               ; preds = %40
  %.not.i = icmp eq i32 %41, 0
  br i1 %.not.i, label %lean_dec.exit, label %46

46:                                               ; preds = %45
  tail call void @lean_dec_ref_cold(ptr noundef nonnull %2) #5
  br label %lean_dec.exit

lean_dec.exit:                                    ; preds = %46, %45, %43, %lean_inc.exit
  tail call void @lean_inc_heartbeat() #5
  %47 = tail call noalias ptr @mi_malloc_small(i64 noundef 32) #5
  %48 = icmp eq ptr %47, null
  br i1 %48, label %49, label %lean_alloc_ctor.exit

49:                                               ; preds = %lean_dec.exit
  tail call void @lean_internal_panic_out_of_memory() #6
  unreachable

lean_alloc_ctor.exit:                             ; preds = %lean_dec.exit
  %50 = getelementptr inbounds nuw i8, ptr %47, i64 4
  %51 = getelementptr inbounds nuw i8, ptr %47, i64 24
  store i64 0, ptr %51, align 8, !tbaa !12
  store i32 1, ptr %47, align 4, !tbaa !8
  store i32 131104, ptr %50, align 4
  %52 = getelementptr inbounds nuw i8, ptr %47, i64 8
  store ptr %19, ptr %52, align 8, !tbaa !4
  %53 = getelementptr inbounds nuw i8, ptr %47, i64 16
  store ptr %21, ptr %53, align 8, !tbaa !4
  br label %54

54:                                               ; preds = %lean_alloc_ctor.exit, %15
  %.sink = phi ptr [ %47, %lean_alloc_ctor.exit ], [ %2, %15 ]
  %55 = tail call ptr @l_Lean_PersistentArray_forM___at_Lean_Meta_Grind_EMatch_ematchTheorems___spec__1(ptr noundef %0, ptr noundef nonnull %.sink, ptr noundef %3, ptr noundef %4, ptr noundef %5, ptr noundef %6, ptr noundef %7, ptr noundef %8, ptr noundef %9, ptr noundef %10, ptr noundef %11, ptr noundef %12)
  ret ptr %55
}